target datalayout = "e-m:e-p270:32:32-p271:32:32-p272:64:64-i64:64-i128:128-f80:128-n8:16:32:64-S128"
target triple = "x86_64-pc-linux-gnu"

%"struct.WasmEdge::Host::WASI::FdHolder.base" = type <{ i32, i8 }>
%"struct.std::__detail::_Hash_node_base" = type { ptr }
%"struct.std::__detail::_Prime_rehash_policy" = type { float, i64 }
%"class.std::vector.104" = type { %"struct.std::_Vector_base.105" }
%"struct.std::_Vector_base.105" = type { %"struct.std::_Vector_base<WasmEdge::Host::WASI::Poller::Timer, std::allocator<WasmEdge::Host::WASI::Poller::Timer>>::_Vector_impl" }
%"struct.std::_Vector_base<WasmEdge::Host::WASI::Poller::Timer, std::allocator<WasmEdge::Host::WASI::Poller::Timer>>::_Vector_impl" = type { %"struct.std::_Vector_base<WasmEdge::Host::WASI::Poller::Timer, std::allocator<WasmEdge::Host::WASI::Poller::Timer>>::_Vector_impl_data" }
%"struct.std::_Vector_base<WasmEdge::Host::WASI::Poller::Timer, std::allocator<WasmEdge::Host::WASI::Poller::Timer>>::_Vector_impl_data" = type { ptr, ptr, ptr }
%"class.WasmEdge::Host::WASI::Poller" = type { %"struct.WasmEdge::Host::WASI::FdHolder.base", %"class.std::reference_wrapper", %"struct.cxx20::span.109", %"class.std::vector.111", %"class.std::unordered_map.116", %"class.std::unordered_map.116", %"class.std::vector.104", %"class.std::vector.136" }
%"class.std::reference_wrapper" = type { ptr }
%"struct.cxx20::span.109" = type { %"class.cxx20::detail::span_storage.110" }
%"class.cxx20::detail::span_storage.110" = type { ptr, i64 }
%"class.std::vector.111" = type { %"struct.std::_Vector_base.112" }
%"struct.std::_Vector_base.112" = type { %"struct.std::_Vector_base<WasmEdge::Host::WASI::Poller::OptionalEvent, std::allocator<WasmEdge::Host::WASI::Poller::OptionalEvent>>::_Vector_impl" }
%"struct.std::_Vector_base<WasmEdge::Host::WASI::Poller::OptionalEvent, std::allocator<WasmEdge::Host::WASI::Poller::OptionalEvent>>::_Vector_impl" = type { %"struct.std::_Vector_base<WasmEdge::Host::WASI::Poller::OptionalEvent, std::allocator<WasmEdge::Host::WASI::Poller::OptionalEvent>>::_Vector_impl_data" }
%"struct.std::_Vector_base<WasmEdge::Host::WASI::Poller::OptionalEvent, std::allocator<WasmEdge::Host::WASI::Poller::OptionalEvent>>::_Vector_impl_data" = type { ptr, ptr, ptr }
%"class.std::unordered_map.116" = type { %"class.std::_Hashtable.117" }
%"class.std::_Hashtable.117" = type { ptr, i64, %"struct.std::__detail::_Hash_node_base", i64, %"struct.std::__detail::_Prime_rehash_policy", ptr }
%"class.std::vector.136" = type { %"struct.std::_Vector_base.137" }
%"struct.std::_Vector_base.137" = type { %"struct.std::_Vector_base<epoll_event, std::allocator<epoll_event>>::_Vector_impl" }
%"struct.std::_Vector_base<epoll_event, std::allocator<epoll_event>>::_Vector_impl" = type { %"struct.std::_Vector_base<epoll_event, std::allocator<epoll_event>>::_Vector_impl_data" }
%"struct.std::_Vector_base<epoll_event, std::allocator<epoll_event>>::_Vector_impl_data" = type { ptr, ptr, ptr }

; Function Attrs: mustprogress nounwind uwtable
define linkonce_odr hidden void @_ZNSt12_Destroy_auxILb1EE9__destroyIPN8WasmEdge4Host4WASI6Poller13OptionalEventEEEvT_S8_(ptr noundef %0, ptr noundef %1) #0 comdat align 2 {
  %3 = alloca ptr, align 8
  %4 = alloca ptr, align 8
  store ptr %0, ptr %3, align 8
  store ptr %1, ptr %4, align 8
  ret void
}

; Function Attrs: mustprogress uwtable
define linkonce_odr void @_ZSt8_DestroyIPN8WasmEdge4Host4WASI6Poller13OptionalEventEEvT_S6_(ptr noundef %0, ptr noundef %1) #7 comdat {
  %3 = alloca ptr, align 8
  %4 = alloca ptr, align 8
  store ptr %0, ptr %3, align 8
  store ptr %1, ptr %4, align 8
  %5 = load ptr, ptr %3, align 8
  %6 = load ptr, ptr %4, align 8
  call void @_ZNSt12_Destroy_auxILb1EE9__destroyIPN8WasmEdge4Host4WASI6Poller13OptionalEventEEEvT_S8_(ptr noundef %5, ptr noundef %6)
  ret void
}

; Function Attrs: noreturn nounwind uwtable
define linkonce_odr hidden void @__clang_call_terminate(ptr noundef %0) #2 comdat {
  %2 = call ptr @__cxa_begin_catch(ptr %0) #14
  call void @_ZSt9terminatev() #15
  unreachable
}

; Function Attrs: mustprogress uwtable
define linkonce_odr void @_ZSt8_DestroyIPN8WasmEdge4Host4WASI6Poller13OptionalEventES4_EvT_S6_RSaIT0_E(ptr noundef %0, ptr noundef %1, ptr noundef nonnull align 1 dereferenceable(1) %2) #7 comdat {
  %4 = alloca ptr, align 8
  %5 = alloca ptr, align 8
  %6 = alloca ptr, align 8
  store ptr %0, ptr %4, align 8
  store ptr %1, ptr %5, align 8
  store ptr %2, ptr %6, align 8
  %7 = load ptr, ptr %4, align 8
  %8 = load ptr, ptr %5, align 8
  call void @_ZSt8_DestroyIPN8WasmEdge4Host4WASI6Poller13OptionalEventEEvT_S6_(ptr noundef %7, ptr noundef %8)
  ret void
}

; Function Attrs: mustprogress nounwind uwtable
define linkonce_odr hidden noundef nonnull align 1 dereferenceable(1) ptr @_ZNSt12_Vector_baseIN8WasmEdge4Host4WASI6Poller13OptionalEventESaIS4_EE19_M_get_Tp_allocatorEv(ptr noundef nonnull align 8 dereferenceable(24) %0) #0 comdat align 2 {
  %2 = alloca ptr, align 8
  store ptr %0, ptr %2, align 8
  %3 = load ptr, ptr %2, align 8
  %4 = getelementptr inbounds %"struct.std::_Vector_base.112", ptr %3, i32 0, i32 0
  ret ptr %4
}

; Function Attrs: mustprogress nounwind uwtable
define linkonce_odr hidden void @_ZNSt6vectorIN8WasmEdge4Host4WASI6Poller13OptionalEventESaIS4_EE15_M_erase_at_endEPS4_(ptr noundef nonnull align 8 dereferenceable(24) %0, ptr noundef %1) #0 comdat align 2 personality ptr @__gxx_personality_v0 {
  %3 = alloca ptr, align 8
  %4 = alloca ptr, align 8
  %5 = alloca i64, align 8
  store ptr %0, ptr %3, align 8
  store ptr %1, ptr %4, align 8
  %6 = load ptr, ptr %3, align 8
  %7 = getelementptr inbounds %"struct.std::_Vector_base.112", ptr %6, i32 0, i32 0
  %8 = getelementptr inbounds %"struct.std::_Vector_base<WasmEdge::Host::WASI::Poller::OptionalEvent, std::allocator<WasmEdge::Host::WASI::Poller::OptionalEvent>>::_Vector_impl_data", ptr %7, i32 0, i32 1
  %9 = load ptr, ptr %8, align 8
  %10 = load ptr, ptr %4, align 8
  %11 = ptrtoint ptr %9 to i64
  %12 = ptrtoint ptr %10 to i64
  %13 = sub i64 %11, %12
  %14 = sdiv exact i64 %13, 40
  store i64 %14, ptr %5, align 8
  %15 = load i64, ptr %5, align 8
  %16 = icmp ne i64 %15, 0
  br i1 %16, label %17, label %27

17:                                               ; preds = %2
  %18 = load ptr, ptr %4, align 8
  %19 = getelementptr inbounds %"struct.std::_Vector_base.112", ptr %6, i32 0, i32 0
  %20 = getelementptr inbounds %"struct.std::_Vector_base<WasmEdge::Host::WASI::Poller::OptionalEvent, std::allocator<WasmEdge::Host::WASI::Poller::OptionalEvent>>::_Vector_impl_data", ptr %19, i32 0, i32 1
  %21 = load ptr, ptr %20, align 8
  %22 = call noundef nonnull align 1 dereferenceable(1) ptr @_ZNSt12_Vector_baseIN8WasmEdge4Host4WASI6Poller13OptionalEventESaIS4_EE19_M_get_Tp_allocatorEv(ptr noundef nonnull align 8 dereferenceable(24) %6) #14
  invoke void @_ZSt8_DestroyIPN8WasmEdge4Host4WASI6Poller13OptionalEventES4_EvT_S6_RSaIT0_E(ptr noundef %18, ptr noundef %21, ptr noundef nonnull align 1 dereferenceable(1) %22)
          to label %23 unwind label %28

23:                                               ; preds = %17
  %24 = load ptr, ptr %4, align 8
  %25 = getelementptr inbounds %"struct.std::_Vector_base.112", ptr %6, i32 0, i32 0
  %26 = getelementptr inbounds %"struct.std::_Vector_base<WasmEdge::Host::WASI::Poller::OptionalEvent, std::allocator<WasmEdge::Host::WASI::Poller::OptionalEvent>>::_Vector_impl_data", ptr %25, i32 0, i32 1
  store ptr %24, ptr %26, align 8
  br label %27

27:                                               ; preds = %23, %2
  ret void

28:                                               ; preds = %17
  %29 = landingpad { ptr, i32 }
          catch ptr null
  %30 = extractvalue { ptr, i32 } %29, 0
  call void @__clang_call_terminate(ptr %30) #15
  unreachable
}

; Function Attrs: mustprogress nounwind uwtable
define linkonce_odr hidden void @_ZN5cxx206detail12span_storageI14__wasi_event_tLm18446744073709551615EEC2Ev(ptr noundef nonnull align 8 dereferenceable(16) %0) unnamed_addr #0 comdat align 2 {
  %2 = alloca ptr, align 8
  store ptr %0, ptr %2, align 8
  %3 = load ptr, ptr %2, align 8
  %4 = getelementptr inbounds %"class.cxx20::detail::span_storage.110", ptr %3, i32 0, i32 0
  store ptr null, ptr %4, align 8
  %5 = getelementptr inbounds %"class.cxx20::detail::span_storage.110", ptr %3, i32 0, i32 1
  store i64 0, ptr %5, align 8
  ret void
}

; Function Attrs: mustprogress nounwind uwtable
define linkonce_odr hidden void @_ZNSt6vectorIN8WasmEdge4Host4WASI6Poller13OptionalEventESaIS4_EE5clearEv(ptr noundef nonnull align 8 dereferenceable(24) %0) #0 comdat align 2 {
  %2 = alloca ptr, align 8
  store ptr %0, ptr %2, align 8
  %3 = load ptr, ptr %2, align 8
  %4 = getelementptr inbounds %"struct.std::_Vector_base.112", ptr %3, i32 0, i32 0
  %5 = getelementptr inbounds %"struct.std::_Vector_base<WasmEdge::Host::WASI::Poller::OptionalEvent, std::allocator<WasmEdge::Host::WASI::Poller::OptionalEvent>>::_Vector_impl_data", ptr %4, i32 0, i32 0
  %6 = load ptr, ptr %5, align 8
  call void @_ZNSt6vectorIN8WasmEdge4Host4WASI6Poller13OptionalEventESaIS4_EE15_M_erase_at_endEPS4_(ptr noundef nonnull align 8 dereferenceable(24) %3, ptr noundef %6) #14
  ret void
}

; Function Attrs: mustprogress nounwind uwtable
define linkonce_odr hidden void @_ZN5cxx204spanI14__wasi_event_tLm18446744073709551615EEC2Ev(ptr noundef nonnull align 8 dereferenceable(16) %0) unnamed_addr #0 comdat align 2 {
  %2 = alloca ptr, align 8
  store ptr %0, ptr %2, align 8
  %3 = load ptr, ptr %2, align 8
  call void @_ZN5cxx206detail12span_storageI14__wasi_event_tLm18446744073709551615EEC2Ev(ptr noundef nonnull align 8 dereferenceable(16) %3) #14
  ret void
}

; Function Attrs: mustprogress nounwind uwtable
define void @_ZN8WasmEdge4Host4WASI6Poller5resetEv(ptr noundef nonnull align 8 dereferenceable(216) %0) #0 align 2 {
  %2 = alloca ptr, align 8
  %3 = alloca %"struct.cxx20::span.109", align 8
  store ptr %0, ptr %2, align 8
  %4 = load ptr, ptr %2, align 8
  call void @llvm.memset.p0.i64(ptr align 8 %3, i8 0, i64 16, i1 false)
  call void @_ZN5cxx204spanI14__wasi_event_tLm18446744073709551615EEC2Ev(ptr noundef nonnull align 8 dereferenceable(16) %3) #14
  %5 = getelementptr inbounds %"class.WasmEdge::Host::WASI::Poller", ptr %4, i32 0, i32 2
  call void @llvm.memcpy.p0.p0.i64(ptr align 8 %5, ptr align 8 %3, i64 16, i1 false)
  %6 = getelementptr inbounds %"class.WasmEdge::Host::WASI::Poller", ptr %4, i32 0, i32 3
  call void @_ZNSt6vectorIN8WasmEdge4Host4WASI6Poller13OptionalEventESaIS4_EE5clearEv(ptr noundef nonnull align 8 dereferenceable(24) %6) #14
  ret void
}