; Function Attrs: mustprogress nofree norecurse nosync nounwind willreturn memory(argmem: readwrite) uwtable
define void @_ZN8WasmEdge4Host4WASI6Poller5resetEv(ptr noundef nonnull align 8 captures(none) dereferenceable(216) initializes((16, 32)) %0) local_unnamed_addr #7 align 2 personality ptr @__gxx_personality_v0 {
  %2 = getelementptr inbounds nuw i8, ptr %0, i64 16
  tail call void @llvm.memset.p0.i64(ptr noundef nonnull align 8 dereferenceable(16) %2, i8 0, i64 16, i1 false)
  %3 = getelementptr inbounds nuw i8, ptr %0, i64 32
  %4 = load ptr, ptr %3, align 8
  %5 = getelementptr inbounds nuw i8, ptr %0, i64 40
  %6 = load ptr, ptr %5, align 8
  %.not.i.i = icmp eq ptr %6, %4
  br i1 %.not.i.i, label %_ZNSt6vectorIN8WasmEdge4Host4WASI6Poller13OptionalEventESaIS4_EE5clearEv.exit, label %7

7:                                                ; preds = %1
  store ptr %4, ptr %5, align 8
  br label %_ZNSt6vectorIN8WasmEdge4Host4WASI6Poller13OptionalEventESaIS4_EE5clearEv.exit

_ZNSt6vectorIN8WasmEdge4Host4WASI6Poller13OptionalEventESaIS4_EE5clearEv.exit: ; preds = %1, %7
  ret void
}